; Function Attrs: mustprogress nounwind uwtable
define internal void @_ZN3net12_GLOBAL__N_125FrameSerializationVisitorD0Ev(ptr noundef nonnull align 8 dereferenceable(40) initializes((0, 8)) %0) unnamed_addr #6 align 2 {
  store ptr getelementptr inbounds nuw inrange(-16, 128) (i8, ptr @_ZTVN3net12_GLOBAL__N_125FrameSerializationVisitorE, i64 16), ptr %0, align 8, !tbaa !9
  %2 = getelementptr inbounds nuw i8, ptr %0, i64 32
  %3 = load i8, ptr %2, align 8, !tbaa !211, !range !85, !noundef !86
  %4 = trunc nuw i8 %3 to i1
  br i1 %4, label %5, label %_ZN3net12_GLOBAL__N_125FrameSerializationVisitorD2Ev.exit

5:                                                ; preds = %1
  %6 = getelementptr inbounds nuw i8, ptr %0, i64 16
  %7 = load ptr, ptr %6, align 8, !tbaa !210
  %8 = icmp eq ptr %7, null
  br i1 %8, label %_ZN3net12_GLOBAL__N_125FrameSerializationVisitorD2Ev.exit, label %9

9:                                                ; preds = %5
  tail call void @_ZdaPv(ptr noundef nonnull %7) #26
  br label %_ZN3net12_GLOBAL__N_125FrameSerializationVisitorD2Ev.exit

_ZN3net12_GLOBAL__N_125FrameSerializationVisitorD2Ev.exit: ; preds = %1, %5, %9
  tail call void @_ZdlPv(ptr noundef nonnull %0) #26
  ret void
}